target datalayout = "e-m:e-p270:32:32-p271:32:32-p272:64:64-i64:64-i128:128-f80:128-n8:16:32:64-S128"
target triple = "x86_64-pc-linux-gnu"

%struct.AsmArgType = type <{ i64, i32 }>

; Function Attrs: nounwind uwtable
define internal zeroext i1 @sema_reg_float_suported_type(i64 %0, i32 %1, ptr noundef %2) #0 {
  %4 = alloca ptr, align 8
  %5 = alloca i32, align 4
  %6 = alloca i32, align 4
  %7 = alloca i32, align 4
  %8 = alloca i1, align 1
  %9 = alloca %struct.AsmArgType, align 4
  %10 = alloca { i64, i32 }, align 4
  %11 = alloca ptr, align 8
  %12 = getelementptr inbounds { i64, i32 }, ptr %10, i32 0, i32 0
  store i64 %0, ptr %12, align 4
  %13 = getelementptr inbounds { i64, i32 }, ptr %10, i32 0, i32 1
  store i32 %1, ptr %13, align 4
  call void @llvm.memcpy.p0.p0.i64(ptr align 4 %9, ptr align 4 %10, i64 12, i1 false)
  store ptr %2, ptr %11, align 8
  %14 = getelementptr inbounds %struct.AsmArgType, ptr %9, i32 0, i32 1
  %15 = load i32, ptr %14, align 4
  %16 = and i32 %15, 65535
  %17 = icmp ne i32 %16, 0
  br i1 %17, label %19, label %18

18:                                               ; preds = %3
  store i1 false, ptr %8, align 1
  br label %84

19:                                               ; preds = %3
  %20 = load ptr, ptr %11, align 8
  store ptr %20, ptr %4, align 8
  %21 = load ptr, ptr %4, align 8
  %22 = call i32 @type_size(ptr noundef %21) #6
  %23 = mul i32 %22, 8
  %24 = zext i32 %23 to i64
  %25 = getelementptr inbounds %struct.AsmArgType, ptr %9, i32 0, i32 1
  %26 = load i32, ptr %25, align 4
  %27 = and i32 %26, 65535
  store i32 %27, ptr %6, align 4
  store i32 0, ptr %7, align 4
  %28 = load i32, ptr %7, align 4
  %29 = icmp eq i32 %28, 0
  br i1 %29, label %30, label %31

30:                                               ; preds = %19
  store i32 -1, ptr %7, align 4
  br label %31

31:                                               ; preds = %30, %19
  %32 = load i32, ptr %7, align 4
  %33 = icmp uge i32 %32, 128
  br i1 %33, label %34, label %39

34:                                               ; preds = %31
  %35 = load i32, ptr %6, align 4
  %36 = and i32 %35, 16
  %37 = icmp ne i32 %36, 0
  br i1 %37, label %38, label %39

38:                                               ; preds = %34
  store i32 128, ptr %5, align 4
  br label %80

39:                                               ; preds = %34, %31
  %40 = load i32, ptr %7, align 4
  %41 = icmp uge i32 %40, 80
  br i1 %41, label %42, label %47

42:                                               ; preds = %39
  %43 = load i32, ptr %6, align 4
  %44 = and i32 %43, 128
  %45 = icmp ne i32 %44, 0
  br i1 %45, label %46, label %47

46:                                               ; preds = %42
  store i32 80, ptr %5, align 4
  br label %80

47:                                               ; preds = %42, %39
  %48 = load i32, ptr %7, align 4
  %49 = icmp uge i32 %48, 64
  br i1 %49, label %50, label %55

50:                                               ; preds = %47
  %51 = load i32, ptr %6, align 4
  %52 = and i32 %51, 8
  %53 = icmp ne i32 %52, 0
  br i1 %53, label %54, label %55

54:                                               ; preds = %50
  store i32 64, ptr %5, align 4
  br label %80

55:                                               ; preds = %50, %47
  %56 = load i32, ptr %7, align 4
  %57 = icmp uge i32 %56, 32
  br i1 %57, label %58, label %63

58:                                               ; preds = %55
  %59 = load i32, ptr %6, align 4
  %60 = and i32 %59, 4
  %61 = icmp ne i32 %60, 0
  br i1 %61, label %62, label %63

62:                                               ; preds = %58
  store i32 32, ptr %5, align 4
  br label %80

63:                                               ; preds = %58, %55
  %64 = load i32, ptr %7, align 4
  %65 = icmp uge i32 %64, 16
  br i1 %65, label %66, label %71

66:                                               ; preds = %63
  %67 = load i32, ptr %6, align 4
  %68 = and i32 %67, 2
  %69 = icmp ne i32 %68, 0
  br i1 %69, label %70, label %71

70:                                               ; preds = %66
  store i32 16, ptr %5, align 4
  br label %80

71:                                               ; preds = %66, %63
  %72 = load i32, ptr %7, align 4
  %73 = icmp uge i32 %72, 8
  br i1 %73, label %74, label %79

74:                                               ; preds = %71
  %75 = load i32, ptr %6, align 4
  %76 = and i32 %75, 1
  %77 = icmp ne i32 %76, 0
  br i1 %77, label %78, label %79

78:                                               ; preds = %74
  store i32 8, ptr %5, align 4
  br label %80

79:                                               ; preds = %74, %71
  store i32 0, ptr %5, align 4
  br label %80

80:                                               ; preds = %79, %78, %70, %62, %54, %46, %38
  %81 = load i32, ptr %5, align 4
  %82 = zext i32 %81 to i64
  %83 = icmp eq i64 %24, %82
  store i1 %83, ptr %8, align 1
  br label %84

84:                                               ; preds = %80, %18
  %85 = load i1, ptr %8, align 1
  ret i1 %85
}