; Function Attrs: nounwind uwtable
define internal fastcc zeroext i1 @sema_reg_float_suported_type(i32 %0, ptr noundef %1) unnamed_addr #0 {
  %3 = and i32 %0, 65535
  %.not = icmp eq i32 %3, 0
  br i1 %.not, label %22, label %4

4:                                                ; preds = %2
  %5 = tail call i32 @type_size(ptr noundef %1) #4
  %6 = shl i32 %5, 3
  %7 = zext i32 %6 to i64
  %8 = and i32 %0, 16
  %.not20 = icmp eq i32 %8, 0
  br i1 %.not20, label %9, label %20

9:                                                ; preds = %4
  %10 = and i32 %0, 128
  %.not21 = icmp eq i32 %10, 0
  br i1 %.not21, label %11, label %20

11:                                               ; preds = %9
  %12 = and i32 %0, 8
  %.not22 = icmp eq i32 %12, 0
  br i1 %.not22, label %13, label %20

13:                                               ; preds = %11
  %14 = and i32 %0, 4
  %.not23 = icmp eq i32 %14, 0
  br i1 %.not23, label %15, label %20

15:                                               ; preds = %13
  %16 = and i32 %0, 2
  %.not24 = icmp eq i32 %16, 0
  br i1 %.not24, label %17, label %20

17:                                               ; preds = %15
  %18 = shl i32 %0, 3
  %19 = and i32 %18, 8
  %. = zext nneg i32 %19 to i64
  br label %20

20:                                               ; preds = %17, %15, %13, %11, %9, %4
  %.0 = phi i64 [ 128, %4 ], [ 80, %9 ], [ 64, %11 ], [ 32, %13 ], [ 16, %15 ], [ %., %17 ]
  %21 = icmp eq i64 %.0, %7
  br label %22

22:                                               ; preds = %2, %20
  %.018 = phi i1 [ %21, %20 ], [ false, %2 ]
  ret i1 %.018
}